target datalayout = "e-m:e-p270:32:32-p271:32:32-p272:64:64-i64:64-i128:128-f80:128-n8:16:32:64-S128"
target triple = "x86_64-pc-linux-gnu"

%struct.SDL_RenderViewState = type { i32, i32, %struct.SDL_Rect, %struct.SDL_Rect, %struct.SDL_Rect, %struct.SDL_Rect, i8, %struct.SDL_FPoint, i32, i32, i32, %struct.SDL_FRect, %struct.SDL_FRect, %struct.SDL_FPoint, %struct.SDL_FPoint, %struct.SDL_FPoint }
%struct.SDL_FRect = type { float, float, float, float }
%struct.SDL_FPoint = type { float, float }
%struct.SDL_FColor = type { float, float, float, float }
%struct.SDL_Rect = type { i32, i32, i32, i32 }
%struct.SDL_Texture = type { i32, i32, i32, i32, i32, float, float, i32, i32, i32, %struct.SDL_FColor, %struct.SDL_RenderViewState, ptr, ptr, ptr, ptr, i32, %struct.SDL_Rect, ptr, i32, i32, ptr, ptr, ptr }
%struct.GL_TextureData = type { i32, i8, float, float, i32, i32, i32, [4 x float], ptr, ptr, i32, %struct.SDL_Rect, i8, i8, i32, i8, i32, i8, i32, i32, i32, ptr }
%struct.SDL_RenderCommand = type { i32, %union.anon, ptr }
%union.anon = type { %struct.anon.1 }
%struct.anon.1 = type { i64, i64, float, %struct.SDL_FColor, i32, ptr, i32, i32, i32, ptr }

; Function Attrs: nounwind uwtable
define internal zeroext i1 @GL_QueueGeometry(ptr noundef %0, ptr noundef %1, ptr noundef %2, ptr noundef %3, i32 noundef %4, ptr noundef %5, i32 noundef %6, ptr noundef %7, i32 noundef %8, i32 noundef %9, ptr noundef %10, i32 noundef %11, i32 noundef %12, float noundef %13, float noundef %14) #0 {
  %16 = alloca i1, align 1
  %17 = alloca ptr, align 8
  %18 = alloca ptr, align 8
  %19 = alloca ptr, align 8
  %20 = alloca ptr, align 8
  %21 = alloca i32, align 4
  %22 = alloca ptr, align 8
  %23 = alloca i32, align 4
  %24 = alloca ptr, align 8
  %25 = alloca i32, align 4
  %26 = alloca i32, align 4
  %27 = alloca ptr, align 8
  %28 = alloca i32, align 4
  %29 = alloca i32, align 4
  %30 = alloca float, align 4
  %31 = alloca float, align 4
  %32 = alloca ptr, align 8
  %33 = alloca i32, align 4
  %34 = alloca i32, align 4
  %35 = alloca ptr, align 8
  %36 = alloca i64, align 8
  %37 = alloca float, align 4
  %38 = alloca i32, align 4
  %39 = alloca i32, align 4
  %40 = alloca ptr, align 8
  %41 = alloca ptr, align 8
  %42 = alloca ptr, align 8
  store ptr %0, ptr %17, align 8
  store ptr %1, ptr %18, align 8
  store ptr %2, ptr %19, align 8
  store ptr %3, ptr %20, align 8
  store i32 %4, ptr %21, align 4
  store ptr %5, ptr %22, align 8
  store i32 %6, ptr %23, align 4
  store ptr %7, ptr %24, align 8
  store i32 %8, ptr %25, align 4
  store i32 %9, ptr %26, align 4
  store ptr %10, ptr %27, align 8
  store i32 %11, ptr %28, align 4
  store i32 %12, ptr %29, align 4
  store float %13, ptr %30, align 4
  store float %14, ptr %31, align 4
  call void @llvm.lifetime.start.p0(i64 8, ptr %32) #4
  store ptr null, ptr %32, align 8
  call void @llvm.lifetime.start.p0(i64 4, ptr %33) #4
  call void @llvm.lifetime.start.p0(i64 4, ptr %34) #4
  %43 = load ptr, ptr %27, align 8
  %44 = icmp ne ptr %43, null
  br i1 %44, label %45, label %47

45:                                               ; preds = %15
  %46 = load i32, ptr %28, align 4
  br label %49

47:                                               ; preds = %15
  %48 = load i32, ptr %26, align 4
  br label %49

49:                                               ; preds = %47, %45
  %50 = phi i32 [ %46, %45 ], [ %48, %47 ]
  store i32 %50, ptr %34, align 4
  call void @llvm.lifetime.start.p0(i64 8, ptr %35) #4
  call void @llvm.lifetime.start.p0(i64 8, ptr %36) #4
  %51 = load ptr, ptr %19, align 8
  %52 = icmp ne ptr %51, null
  %53 = select i1 %52, i32 2, i32 0
  %54 = sext i32 %53 to i64
  %55 = mul i64 %54, 4
  %56 = add i64 24, %55
  store i64 %56, ptr %36, align 8
  call void @llvm.lifetime.start.p0(i64 4, ptr %37) #4
  %57 = load ptr, ptr %18, align 8
  %58 = getelementptr inbounds nuw %struct.SDL_RenderCommand, ptr %57, i32 0, i32 1
  %59 = getelementptr inbounds nuw %struct.anon.1, ptr %58, i32 0, i32 2
  %60 = load float, ptr %59, align 8
  store float %60, ptr %37, align 4
  %61 = load ptr, ptr %17, align 8
  %62 = load i32, ptr %34, align 4
  %63 = sext i32 %62 to i64
  %64 = load i64, ptr %36, align 8
  %65 = mul i64 %63, %64
  %66 = load ptr, ptr %18, align 8
  %67 = getelementptr inbounds nuw %struct.SDL_RenderCommand, ptr %66, i32 0, i32 1
  %68 = getelementptr inbounds nuw %struct.anon.1, ptr %67, i32 0, i32 0
  %69 = call ptr @SDL_AllocateRenderVertices(ptr noundef %61, i64 noundef %65, i64 noundef 0, ptr noundef %68)
  store ptr %69, ptr %35, align 8
  %70 = load ptr, ptr %35, align 8
  %71 = icmp ne ptr %70, null
  br i1 %71, label %73, label %72

72:                                               ; preds = %49
  store i1 false, ptr %16, align 1
  store i32 1, ptr %38, align 4
  br label %215

73:                                               ; preds = %49
  %74 = load ptr, ptr %19, align 8
  %75 = icmp ne ptr %74, null
  br i1 %75, label %76, label %80

76:                                               ; preds = %73
  %77 = load ptr, ptr %19, align 8
  %78 = getelementptr inbounds nuw %struct.SDL_Texture, ptr %77, i32 0, i32 21
  %79 = load ptr, ptr %78, align 8
  store ptr %79, ptr %32, align 8
  br label %80

80:                                               ; preds = %76, %73
  %81 = load i32, ptr %34, align 4
  %82 = sext i32 %81 to i64
  %83 = load ptr, ptr %18, align 8
  %84 = getelementptr inbounds nuw %struct.SDL_RenderCommand, ptr %83, i32 0, i32 1
  %85 = getelementptr inbounds nuw %struct.anon.1, ptr %84, i32 0, i32 1
  store i64 %82, ptr %85, align 8
  %86 = load ptr, ptr %27, align 8
  %87 = icmp ne ptr %86, null
  br i1 %87, label %88, label %90

88:                                               ; preds = %80
  %89 = load i32, ptr %29, align 4
  br label %91

90:                                               ; preds = %80
  br label %91

91:                                               ; preds = %90, %88
  %92 = phi i32 [ %89, %88 ], [ 0, %90 ]
  store i32 %92, ptr %29, align 4
  store i32 0, ptr %33, align 4
  br label %93

93:                                               ; preds = %211, %91
  %94 = load i32, ptr %33, align 4
  %95 = load i32, ptr %34, align 4
  %96 = icmp slt i32 %94, %95
  br i1 %96, label %97, label %214

97:                                               ; preds = %93
  call void @llvm.lifetime.start.p0(i64 4, ptr %39) #4
  call void @llvm.lifetime.start.p0(i64 8, ptr %40) #4
  call void @llvm.lifetime.start.p0(i64 8, ptr %41) #4
  %98 = load i32, ptr %29, align 4
  %99 = icmp eq i32 %98, 4
  br i1 %99, label %100, label %106

100:                                              ; preds = %97
  %101 = load ptr, ptr %27, align 8
  %102 = load i32, ptr %33, align 4
  %103 = sext i32 %102 to i64
  %104 = getelementptr inbounds i32, ptr %101, i64 %103
  %105 = load i32, ptr %104, align 4
  store i32 %105, ptr %39, align 4
  br label %130

106:                                              ; preds = %97
  %107 = load i32, ptr %29, align 4
  %108 = icmp eq i32 %107, 2
  br i1 %108, label %109, label %116

109:                                              ; preds = %106
  %110 = load ptr, ptr %27, align 8
  %111 = load i32, ptr %33, align 4
  %112 = sext i32 %111 to i64
  %113 = getelementptr inbounds i16, ptr %110, i64 %112
  %114 = load i16, ptr %113, align 2
  %115 = zext i16 %114 to i32
  store i32 %115, ptr %39, align 4
  br label %129

116:                                              ; preds = %106
  %117 = load i32, ptr %29, align 4
  %118 = icmp eq i32 %117, 1
  br i1 %118, label %119, label %126

119:                                              ; preds = %116
  %120 = load ptr, ptr %27, align 8
  %121 = load i32, ptr %33, align 4
  %122 = sext i32 %121 to i64
  %123 = getelementptr inbounds i8, ptr %120, i64 %122
  %124 = load i8, ptr %123, align 1
  %125 = zext i8 %124 to i32
  store i32 %125, ptr %39, align 4
  br label %128

126:                                              ; preds = %116
  %127 = load i32, ptr %33, align 4
  store i32 %127, ptr %39, align 4
  br label %128

128:                                              ; preds = %126, %119
  br label %129

129:                                              ; preds = %128, %109
  br label %130

130:                                              ; preds = %129, %100
  %131 = load ptr, ptr %20, align 8
  %132 = load i32, ptr %39, align 4
  %133 = load i32, ptr %21, align 4
  %134 = mul nsw i32 %132, %133
  %135 = sext i32 %134 to i64
  %136 = getelementptr inbounds i8, ptr %131, i64 %135
  store ptr %136, ptr %40, align 8
  %137 = load ptr, ptr %40, align 8
  %138 = getelementptr inbounds float, ptr %137, i64 0
  %139 = load float, ptr %138, align 4
  %140 = load float, ptr %30, align 4
  %141 = fmul float %139, %140
  %142 = load ptr, ptr %35, align 8
  %143 = getelementptr inbounds nuw float, ptr %142, i32 1
  store ptr %143, ptr %35, align 8
  store float %141, ptr %142, align 4
  %144 = load ptr, ptr %40, align 8
  %145 = getelementptr inbounds float, ptr %144, i64 1
  %146 = load float, ptr %145, align 4
  %147 = load float, ptr %31, align 4
  %148 = fmul float %146, %147
  %149 = load ptr, ptr %35, align 8
  %150 = getelementptr inbounds nuw float, ptr %149, i32 1
  store ptr %150, ptr %35, align 8
  store float %148, ptr %149, align 4
  %151 = load ptr, ptr %22, align 8
  %152 = load i32, ptr %39, align 4
  %153 = load i32, ptr %23, align 4
  %154 = mul nsw i32 %152, %153
  %155 = sext i32 %154 to i64
  %156 = getelementptr inbounds i8, ptr %151, i64 %155
  store ptr %156, ptr %41, align 8
  %157 = load ptr, ptr %41, align 8
  %158 = getelementptr inbounds nuw %struct.SDL_FColor, ptr %157, i32 0, i32 0
  %159 = load float, ptr %158, align 4
  %160 = load float, ptr %37, align 4
  %161 = fmul float %159, %160
  %162 = load ptr, ptr %35, align 8
  %163 = getelementptr inbounds nuw float, ptr %162, i32 1
  store ptr %163, ptr %35, align 8
  store float %161, ptr %162, align 4
  %164 = load ptr, ptr %41, align 8
  %165 = getelementptr inbounds nuw %struct.SDL_FColor, ptr %164, i32 0, i32 1
  %166 = load float, ptr %165, align 4
  %167 = load float, ptr %37, align 4
  %168 = fmul float %166, %167
  %169 = load ptr, ptr %35, align 8
  %170 = getelementptr inbounds nuw float, ptr %169, i32 1
  store ptr %170, ptr %35, align 8
  store float %168, ptr %169, align 4
  %171 = load ptr, ptr %41, align 8
  %172 = getelementptr inbounds nuw %struct.SDL_FColor, ptr %171, i32 0, i32 2
  %173 = load float, ptr %172, align 4
  %174 = load float, ptr %37, align 4
  %175 = fmul float %173, %174
  %176 = load ptr, ptr %35, align 8
  %177 = getelementptr inbounds nuw float, ptr %176, i32 1
  store ptr %177, ptr %35, align 8
  store float %175, ptr %176, align 4
  %178 = load ptr, ptr %41, align 8
  %179 = getelementptr inbounds nuw %struct.SDL_FColor, ptr %178, i32 0, i32 3
  %180 = load float, ptr %179, align 4
  %181 = load ptr, ptr %35, align 8
  %182 = getelementptr inbounds nuw float, ptr %181, i32 1
  store ptr %182, ptr %35, align 8
  store float %180, ptr %181, align 4
  %183 = load ptr, ptr %19, align 8
  %184 = icmp ne ptr %183, null
  br i1 %184, label %185, label %210

185:                                              ; preds = %130
  call void @llvm.lifetime.start.p0(i64 8, ptr %42) #4
  %186 = load ptr, ptr %24, align 8
  %187 = load i32, ptr %39, align 4
  %188 = load i32, ptr %25, align 4
  %189 = mul nsw i32 %187, %188
  %190 = sext i32 %189 to i64
  %191 = getelementptr inbounds i8, ptr %186, i64 %190
  store ptr %191, ptr %42, align 8
  %192 = load ptr, ptr %42, align 8
  %193 = getelementptr inbounds float, ptr %192, i64 0
  %194 = load float, ptr %193, align 4
  %195 = load ptr, ptr %32, align 8
  %196 = getelementptr inbounds nuw %struct.GL_TextureData, ptr %195, i32 0, i32 2
  %197 = load float, ptr %196, align 8
  %198 = fmul float %194, %197
  %199 = load ptr, ptr %35, align 8
  %200 = getelementptr inbounds nuw float, ptr %199, i32 1
  store ptr %200, ptr %35, align 8
  store float %198, ptr %199, align 4
  %201 = load ptr, ptr %42, align 8
  %202 = getelementptr inbounds float, ptr %201, i64 1
  %203 = load float, ptr %202, align 4
  %204 = load ptr, ptr %32, align 8
  %205 = getelementptr inbounds nuw %struct.GL_TextureData, ptr %204, i32 0, i32 3
  %206 = load float, ptr %205, align 4
  %207 = fmul float %203, %206
  %208 = load ptr, ptr %35, align 8
  %209 = getelementptr inbounds nuw float, ptr %208, i32 1
  store ptr %209, ptr %35, align 8
  store float %207, ptr %208, align 4
  call void @llvm.lifetime.end.p0(i64 8, ptr %42) #4
  br label %210

210:                                              ; preds = %185, %130
  call void @llvm.lifetime.end.p0(i64 8, ptr %41) #4
  call void @llvm.lifetime.end.p0(i64 8, ptr %40) #4
  call void @llvm.lifetime.end.p0(i64 4, ptr %39) #4
  br label %211

211:                                              ; preds = %210
  %212 = load i32, ptr %33, align 4
  %213 = add nsw i32 %212, 1
  store i32 %213, ptr %33, align 4
  br label %93, !llvm.loop !9

214:                                              ; preds = %93
  store i1 true, ptr %16, align 1
  store i32 1, ptr %38, align 4
  br label %215

215:                                              ; preds = %214, %72
  call void @llvm.lifetime.end.p0(i64 4, ptr %37) #4
  call void @llvm.lifetime.end.p0(i64 8, ptr %36) #4
  call void @llvm.lifetime.end.p0(i64 8, ptr %35) #4
  call void @llvm.lifetime.end.p0(i64 4, ptr %34) #4
  call void @llvm.lifetime.end.p0(i64 4, ptr %33) #4
  call void @llvm.lifetime.end.p0(i64 8, ptr %32) #4
  %216 = load i1, ptr %16, align 1
  ret i1 %216
}