; Function Attrs: nounwind uwtable
define internal noundef zeroext i1 @GL_QueueGeometry(ptr noundef %0, ptr noundef %1, ptr noundef readonly captures(address_is_null) %2, ptr noundef readonly captures(none) %3, i32 noundef %4, ptr noundef readonly captures(none) %5, i32 noundef %6, ptr noundef readonly captures(none) %7, i32 noundef %8, i32 noundef %9, ptr noundef readonly captures(address_is_null) %10, i32 noundef %11, i32 noundef %12, float noundef %13, float noundef %14) #0 {
  %.not = icmp eq ptr %10, null
  %16 = select i1 %.not, i32 %9, i32 %11
  %.not69 = icmp eq ptr %2, null
  %17 = select i1 %.not69, i64 24, i64 32
  %18 = getelementptr inbounds nuw i8, ptr %1, i64 8
  %19 = getelementptr inbounds nuw i8, ptr %1, i64 24
  %20 = load float, ptr %19, align 8
  %21 = sext i32 %16 to i64
  %22 = mul nsw i64 %17, %21
  %23 = tail call ptr @SDL_AllocateRenderVertices(ptr noundef %0, i64 noundef %22, i64 noundef 0, ptr noundef nonnull %18) #7
  %.not70 = icmp ne ptr %23, null
  br i1 %.not70, label %24, label %.loopexit

24:                                               ; preds = %15
  br i1 %.not69, label %25, label %.thread

25:                                               ; preds = %24
  %26 = getelementptr inbounds nuw i8, ptr %1, i64 16
  store i64 %21, ptr %26, align 8
  %27 = select i1 %.not, i32 0, i32 %12
  %28 = icmp sgt i32 %16, 0
  br i1 %28, label %.lr.ph.split.us.preheader, label %.loopexit

.thread:                                          ; preds = %24
  %29 = getelementptr inbounds nuw i8, ptr %2, i64 280
  %30 = load ptr, ptr %29, align 8
  %31 = getelementptr inbounds nuw i8, ptr %1, i64 16
  store i64 %21, ptr %31, align 8
  %32 = select i1 %.not, i32 0, i32 %12
  %33 = icmp sgt i32 %16, 0
  br i1 %33, label %.lr.ph.split.preheader, label %.loopexit

.lr.ph.split.preheader:                           ; preds = %.thread
  %34 = getelementptr inbounds nuw i8, ptr %30, i64 8
  %35 = getelementptr inbounds nuw i8, ptr %30, i64 12
  %wide.trip.count = zext nneg i32 %16 to i64
  br label %.lr.ph.split

.lr.ph.split.us.preheader:                        ; preds = %25
  %wide.trip.count78 = zext nneg i32 %16 to i64
  br label %.lr.ph.split.us

.lr.ph.split.us:                                  ; preds = %.lr.ph.split.us.preheader, %48
  %indvars.iv75 = phi i64 [ 0, %.lr.ph.split.us.preheader ], [ %indvars.iv.next76, %48 ]
  %.06571.us = phi ptr [ %23, %.lr.ph.split.us.preheader ], [ %75, %48 ]
  %36 = trunc nuw nsw i64 %indvars.iv75 to i32
  switch i32 %27, label %48 [
    i32 4, label %45
    i32 2, label %41
    i32 1, label %37
  ]

37:                                               ; preds = %.lr.ph.split.us
  %38 = getelementptr inbounds nuw i8, ptr %10, i64 %indvars.iv75
  %39 = load i8, ptr %38, align 1
  %40 = zext i8 %39 to i32
  br label %48

41:                                               ; preds = %.lr.ph.split.us
  %42 = getelementptr inbounds nuw i16, ptr %10, i64 %indvars.iv75
  %43 = load i16, ptr %42, align 2
  %44 = zext i16 %43 to i32
  br label %48

45:                                               ; preds = %.lr.ph.split.us
  %46 = getelementptr inbounds nuw i32, ptr %10, i64 %indvars.iv75
  %47 = load i32, ptr %46, align 4
  br label %48

48:                                               ; preds = %45, %41, %37, %.lr.ph.split.us
  %.063.us = phi i32 [ %47, %45 ], [ %44, %41 ], [ %40, %37 ], [ %36, %.lr.ph.split.us ]
  %49 = mul nsw i32 %.063.us, %4
  %50 = sext i32 %49 to i64
  %51 = getelementptr inbounds i8, ptr %3, i64 %50
  %52 = load float, ptr %51, align 4
  %53 = fmul float %13, %52
  %54 = getelementptr inbounds nuw i8, ptr %.06571.us, i64 4
  store float %53, ptr %.06571.us, align 4
  %55 = getelementptr inbounds nuw i8, ptr %51, i64 4
  %56 = load float, ptr %55, align 4
  %57 = fmul float %14, %56
  %58 = getelementptr inbounds nuw i8, ptr %.06571.us, i64 8
  store float %57, ptr %54, align 4
  %59 = mul nsw i32 %.063.us, %6
  %60 = sext i32 %59 to i64
  %61 = getelementptr inbounds i8, ptr %5, i64 %60
  %62 = load float, ptr %61, align 4
  %63 = fmul float %20, %62
  %64 = getelementptr inbounds nuw i8, ptr %.06571.us, i64 12
  store float %63, ptr %58, align 4
  %65 = getelementptr inbounds nuw i8, ptr %61, i64 4
  %66 = load float, ptr %65, align 4
  %67 = fmul float %20, %66
  %68 = getelementptr inbounds nuw i8, ptr %.06571.us, i64 16
  store float %67, ptr %64, align 4
  %69 = getelementptr inbounds nuw i8, ptr %61, i64 8
  %70 = load float, ptr %69, align 4
  %71 = fmul float %20, %70
  %72 = getelementptr inbounds nuw i8, ptr %.06571.us, i64 20
  store float %71, ptr %68, align 4
  %73 = getelementptr inbounds nuw i8, ptr %61, i64 12
  %74 = load float, ptr %73, align 4
  %75 = getelementptr inbounds nuw i8, ptr %.06571.us, i64 24
  store float %74, ptr %72, align 4
  %indvars.iv.next76 = add nuw nsw i64 %indvars.iv75, 1
  %exitcond79.not = icmp eq i64 %indvars.iv.next76, %wide.trip.count78
  br i1 %exitcond79.not, label %.loopexit, label %.lr.ph.split.us, !llvm.loop !9

.lr.ph.split:                                     ; preds = %.lr.ph.split.preheader, %88
  %indvars.iv = phi i64 [ 0, %.lr.ph.split.preheader ], [ %indvars.iv.next, %88 ]
  %.06571 = phi ptr [ %23, %.lr.ph.split.preheader ], [ %127, %88 ]
  %76 = trunc nuw nsw i64 %indvars.iv to i32
  switch i32 %32, label %88 [
    i32 4, label %77
    i32 2, label %80
    i32 1, label %84
  ]

77:                                               ; preds = %.lr.ph.split
  %78 = getelementptr inbounds nuw i32, ptr %10, i64 %indvars.iv
  %79 = load i32, ptr %78, align 4
  br label %88

80:                                               ; preds = %.lr.ph.split
  %81 = getelementptr inbounds nuw i16, ptr %10, i64 %indvars.iv
  %82 = load i16, ptr %81, align 2
  %83 = zext i16 %82 to i32
  br label %88

84:                                               ; preds = %.lr.ph.split
  %85 = getelementptr inbounds nuw i8, ptr %10, i64 %indvars.iv
  %86 = load i8, ptr %85, align 1
  %87 = zext i8 %86 to i32
  br label %88

88:                                               ; preds = %.lr.ph.split, %80, %84, %77
  %.063 = phi i32 [ %79, %77 ], [ %83, %80 ], [ %87, %84 ], [ %76, %.lr.ph.split ]
  %89 = mul nsw i32 %.063, %4
  %90 = sext i32 %89 to i64
  %91 = getelementptr inbounds i8, ptr %3, i64 %90
  %92 = load float, ptr %91, align 4
  %93 = fmul float %13, %92
  %94 = getelementptr inbounds nuw i8, ptr %.06571, i64 4
  store float %93, ptr %.06571, align 4
  %95 = getelementptr inbounds nuw i8, ptr %91, i64 4
  %96 = load float, ptr %95, align 4
  %97 = fmul float %14, %96
  %98 = getelementptr inbounds nuw i8, ptr %.06571, i64 8
  store float %97, ptr %94, align 4
  %99 = mul nsw i32 %.063, %6
  %100 = sext i32 %99 to i64
  %101 = getelementptr inbounds i8, ptr %5, i64 %100
  %102 = load float, ptr %101, align 4
  %103 = fmul float %20, %102
  %104 = getelementptr inbounds nuw i8, ptr %.06571, i64 12
  store float %103, ptr %98, align 4
  %105 = getelementptr inbounds nuw i8, ptr %101, i64 4
  %106 = load float, ptr %105, align 4
  %107 = fmul float %20, %106
  %108 = getelementptr inbounds nuw i8, ptr %.06571, i64 16
  store float %107, ptr %104, align 4
  %109 = getelementptr inbounds nuw i8, ptr %101, i64 8
  %110 = load float, ptr %109, align 4
  %111 = fmul float %20, %110
  %112 = getelementptr inbounds nuw i8, ptr %.06571, i64 20
  store float %111, ptr %108, align 4
  %113 = getelementptr inbounds nuw i8, ptr %101, i64 12
  %114 = load float, ptr %113, align 4
  %115 = getelementptr inbounds nuw i8, ptr %.06571, i64 24
  store float %114, ptr %112, align 4
  %116 = mul nsw i32 %.063, %8
  %117 = sext i32 %116 to i64
  %118 = getelementptr inbounds i8, ptr %7, i64 %117
  %119 = load float, ptr %118, align 4
  %120 = load float, ptr %34, align 8
  %121 = fmul float %119, %120
  %122 = getelementptr inbounds nuw i8, ptr %.06571, i64 28
  store float %121, ptr %115, align 4
  %123 = getelementptr inbounds nuw i8, ptr %118, i64 4
  %124 = load float, ptr %123, align 4
  %125 = load float, ptr %35, align 4
  %126 = fmul float %124, %125
  %127 = getelementptr inbounds nuw i8, ptr %.06571, i64 32
  store float %126, ptr %122, align 4
  %indvars.iv.next = add nuw nsw i64 %indvars.iv, 1
  %exitcond.not = icmp eq i64 %indvars.iv.next, %wide.trip.count
  br i1 %exitcond.not, label %.loopexit, label %.lr.ph.split, !llvm.loop !9

.loopexit:                                        ; preds = %88, %48, %.thread, %25, %15
  ret i1 %.not70
}